; Function Attrs: mustprogress nounwind uwtable
define hidden void @_ZN19JfrPeriodicEventSet20requestOSInformationEv() local_unnamed_addr #2 align 2 {
  %1 = alloca ptr, align 8
  %2 = alloca %class.EventOSInformation, align 8
  %3 = tail call align 8 ptr @llvm.threadlocal.address.p0(ptr align 8 @_ZN6Thread12_thr_currentE)
  %4 = load ptr, ptr %3, align 8
  %5 = getelementptr inbounds i8, ptr %4, i64 800
  %6 = load ptr, ptr %5, align 8
  %7 = getelementptr inbounds i8, ptr %6, i64 24
  %8 = load ptr, ptr %7, align 8
  %9 = getelementptr inbounds i8, ptr %6, i64 32
  %10 = load ptr, ptr %9, align 8
  %11 = getelementptr inbounds i8, ptr %6, i64 40
  %12 = load ptr, ptr %11, align 8
  %13 = getelementptr inbounds i8, ptr %6, i64 8
  %14 = load i64, ptr %13, align 8
  store ptr null, ptr %1, align 8
  %15 = call noundef i32 @_ZN14JfrOSInterface10os_versionEPPc(ptr noundef nonnull %1) #13
  call void @llvm.memset.p0.i64(ptr noundef nonnull align 8 dereferenceable(19) %2, i8 0, i64 19, i1 false)
  %16 = load i8, ptr getelementptr inbounds (i8, ptr @_ZN15JfrEventSetting19_jvm_event_settingsE, i64 2369), align 1
  %17 = icmp eq i8 %16, 0
  br i1 %17, label %_ZN18EventOSInformationC2E14EventStartTime.exit, label %18

18:                                               ; preds = %0
  %19 = call noundef i64 @_ZN33FastUnorderedElapsedCounterSource3nowEv() #13
  store i64 %19, ptr %2, align 8
  br label %_ZN18EventOSInformationC2E14EventStartTime.exit

_ZN18EventOSInformationC2E14EventStartTime.exit:  ; preds = %0, %18
  %20 = load ptr, ptr %1, align 8
  %21 = getelementptr inbounds i8, ptr %2, i64 24
  store ptr %20, ptr %21, align 8
  call void @_ZN8JfrEventI18EventOSInformationE6commitEv(ptr noundef nonnull align 8 dereferenceable(19) %2)
  %22 = load ptr, ptr %8, align 8
  %.not.i.i.i.i = icmp eq ptr %22, null
  br i1 %.not.i.i.i.i, label %24, label %23

23:                                               ; preds = %_ZN18EventOSInformationC2E14EventStartTime.exit
  call void @_ZN5Arena17set_size_in_bytesEm(ptr noundef nonnull align 8 dereferenceable(48) %6, i64 noundef %14) #13
  call void @_ZN5Chunk9next_chopEPS_(ptr noundef nonnull %8) #13
  br label %24

24:                                               ; preds = %23, %_ZN18EventOSInformationC2E14EventStartTime.exit
  %25 = load ptr, ptr %9, align 8
  %.not8.i.i.i.i = icmp eq ptr %25, %10
  br i1 %.not8.i.i.i.i, label %_ZN12ResourceMarkD2Ev.exit, label %26

26:                                               ; preds = %24
  store ptr %8, ptr %7, align 8
  store ptr %10, ptr %9, align 8
  store ptr %12, ptr %11, align 8
  br label %_ZN12ResourceMarkD2Ev.exit

_ZN12ResourceMarkD2Ev.exit:                       ; preds = %24, %26
  ret void
}